; Function Attrs: mustprogress uwtable
define void @_ZN5arrow8internal22FloatToStringFormatterC2Ev(ptr noundef nonnull writeonly align 8 captures(none) dereferenceable(8) initializes((0, 8)) %0) unnamed_addr #0 align 2 personality ptr @__gxx_personality_v0 {
  %2 = tail call noalias noundef nonnull dereferenceable(48) ptr @_Znwm(i64 noundef 48) #6
  store i32 1, ptr %2, align 8, !tbaa !3
  %3 = getelementptr inbounds nuw i8, ptr %2, i64 8
  store ptr @.str, ptr %3, align 8, !tbaa !10
  %4 = getelementptr inbounds nuw i8, ptr %2, i64 16
  store ptr @.str.1, ptr %4, align 8, !tbaa !11
  %5 = getelementptr inbounds nuw i8, ptr %2, i64 24
  store i8 101, ptr %5, align 8, !tbaa !12
  %6 = getelementptr inbounds nuw i8, ptr %2, i64 28
  store i32 -6, ptr %6, align 4, !tbaa !13
  %7 = getelementptr inbounds nuw i8, ptr %2, i64 32
  store i32 10, ptr %7, align 8, !tbaa !14
  %8 = getelementptr inbounds nuw i8, ptr %2, i64 36
  store i32 6, ptr %8, align 4, !tbaa !15
  %9 = getelementptr inbounds nuw i8, ptr %2, i64 40
  store i32 0, ptr %9, align 8, !tbaa !16
  %10 = getelementptr inbounds nuw i8, ptr %2, i64 44
  store i32 0, ptr %10, align 4, !tbaa !17
  store ptr %2, ptr %0, align 8, !tbaa !18
  ret void
}